; Function Attrs: mustprogress uwtable
define void @_ZN6LibRaw8tiff_getEjPjS0_S0_S0_(ptr noundef nonnull align 8 dereferenceable(767680) %0, i32 noundef %1, ptr noundef writeonly captures(none) %2, ptr noundef captures(none) %3, ptr noundef captures(none) %4, ptr noundef writeonly captures(none) %5) local_unnamed_addr #9 align 2 {
  %7 = getelementptr inbounds nuw i8, ptr %0, i64 381416
  %8 = load ptr, ptr %7, align 8, !tbaa !163
  %9 = load ptr, ptr %8, align 8, !tbaa !164
  %10 = getelementptr inbounds nuw i8, ptr %9, i64 40
  %11 = load ptr, ptr %10, align 8
  %12 = tail call noundef i64 %11(ptr noundef nonnull align 8 dereferenceable(8) %8)
  %13 = load ptr, ptr %7, align 8, !tbaa !163
  %14 = load ptr, ptr %13, align 8, !tbaa !164
  %15 = getelementptr inbounds nuw i8, ptr %14, i64 48
  %16 = load ptr, ptr %15, align 8
  %17 = tail call noundef i64 %16(ptr noundef nonnull align 8 dereferenceable(8) %13)
  %18 = icmp slt i64 %17, 12
  %19 = sub nsw i64 %17, %12
  %20 = icmp slt i64 %19, 12
  %or.cond = select i1 %18, i1 true, i1 %20
  br i1 %or.cond, label %21, label %23

21:                                               ; preds = %6
  %22 = tail call ptr @__cxa_allocate_exception(i64 4) #17
  store i32 4, ptr %22, align 16, !tbaa !125
  tail call void @__cxa_throw(ptr nonnull %22, ptr nonnull @_ZTI17LibRaw_exceptions, ptr null) #18
  unreachable

23:                                               ; preds = %6
  %24 = tail call noundef zeroext i16 @_ZN6LibRaw4get2Ev(ptr noundef nonnull align 8 dereferenceable(767680) %0)
  %25 = zext i16 %24 to i32
  store i32 %25, ptr %2, align 4, !tbaa !135
  %26 = tail call noundef zeroext i16 @_ZN6LibRaw4get2Ev(ptr noundef nonnull align 8 dereferenceable(767680) %0)
  %27 = zext i16 %26 to i32
  store i32 %27, ptr %3, align 4, !tbaa !135
  %28 = tail call noundef i32 @_ZN6LibRaw4get4Ev(ptr noundef nonnull align 8 dereferenceable(767680) %0)
  store i32 %28, ptr %4, align 4, !tbaa !135
  %29 = load ptr, ptr %7, align 8, !tbaa !163
  %30 = load ptr, ptr %29, align 8, !tbaa !164
  %31 = getelementptr inbounds nuw i8, ptr %30, i64 40
  %32 = load ptr, ptr %31, align 8
  %33 = tail call noundef i64 %32(ptr noundef nonnull align 8 dereferenceable(8) %29)
  %34 = trunc i64 %33 to i32
  %35 = add i32 %34, 4
  store i32 %35, ptr %5, align 4, !tbaa !135
  %36 = load i32, ptr %4, align 4, !tbaa !135
  %37 = load i32, ptr %3, align 4, !tbaa !135
  %38 = icmp ult i32 %37, 19
  %spec.select = select i1 %38, i32 %37, i32 0
  %39 = load i32, ptr getelementptr inbounds nuw (i8, ptr @_ZN6LibRaw22tagtype_dataunit_bytesE, i64 8), align 8, !tbaa !166
  %40 = icmp ult i32 %spec.select, %39
  br i1 %40, label %41, label %46

41:                                               ; preds = %23
  %42 = load ptr, ptr @_ZN6LibRaw22tagtype_dataunit_bytesE, align 8, !tbaa !168
  %43 = zext i32 %spec.select to i64
  %44 = getelementptr inbounds nuw i32, ptr %42, i64 %43
  %45 = load i32, ptr %44, align 4, !tbaa !135
  br label %_ZNK21libraw_static_table_tixEj.exit

46:                                               ; preds = %23
  %.not.i = icmp eq i32 %39, 0
  br i1 %.not.i, label %_ZNK21libraw_static_table_tixEj.exit, label %47

47:                                               ; preds = %46
  %48 = load ptr, ptr @_ZN6LibRaw22tagtype_dataunit_bytesE, align 8, !tbaa !168
  %.not6.i = icmp eq ptr %48, null
  br i1 %.not6.i, label %_ZNK21libraw_static_table_tixEj.exit, label %49

49:                                               ; preds = %47
  %50 = load i32, ptr %48, align 4, !tbaa !135
  br label %_ZNK21libraw_static_table_tixEj.exit

_ZNK21libraw_static_table_tixEj.exit:             ; preds = %41, %46, %47, %49
  %.0.i = phi i32 [ %45, %41 ], [ %50, %49 ], [ 0, %47 ], [ 0, %46 ]
  %51 = mul i32 %.0.i, %36
  %52 = icmp ugt i32 %51, 4
  br i1 %52, label %53, label %62

53:                                               ; preds = %_ZNK21libraw_static_table_tixEj.exit
  %54 = load ptr, ptr %7, align 8, !tbaa !163
  %55 = tail call noundef i32 @_ZN6LibRaw4get4Ev(ptr noundef nonnull align 8 dereferenceable(767680) %0)
  %56 = add i32 %55, %1
  %57 = zext i32 %56 to i64
  %58 = load ptr, ptr %54, align 8, !tbaa !164
  %59 = getelementptr inbounds nuw i8, ptr %58, i64 32
  %60 = load ptr, ptr %59, align 8
  %61 = tail call noundef i32 %60(ptr noundef nonnull align 8 dereferenceable(8) %54, i64 noundef %57, i32 noundef 0)
  br label %62

62:                                               ; preds = %53, %_ZNK21libraw_static_table_tixEj.exit
  ret void
}